
led.elf:     file format elf32-littlearm

Disassembly of section .text:

00000000 <_start>:
   0:	e3a00207 	mov	r0, #1879048192	; 0x70000000
   4:	e3800013 	orr	r0, r0, #19	; 0x13
   8:	ee0f0f92 	mcr	15, 0, r0, cr15, cr2, {4}
   c:	e59f0010 	ldr	r0, [pc, #16]	; 24 <halt+0x4>
  10:	e3a01000 	mov	r1, #0	; 0x0
  14:	e5801000 	str	r1, [r0]
  18:	e3a0da02 	mov	sp, #8192	; 0x2000
  1c:	eb000010 	bl	64 <xxxxx>

00000020 <halt>:
  20:	eafffffe 	b	20 <halt>
  24:	7e004000 	.word	0x7e004000

00000028 <delay>:
  28:	e1a0c00d 	mov	ip, sp
  2c:	e92dd800 	push	{fp, ip, lr, pc}  // stm sp!, {fp, ip, lr, pc} // !表示"修改sp"
  30:	e24cb004 	sub	fp, ip, #4	; 0x4
  34:	e24dd008 	sub	sp, sp, #8	; 0x8
  38:	e3a03801 	mov	r3, #65536	; 0x10000
  3c:	e50b3010 	str	r3, [fp, #-16]   // i
  40:	e51b3010 	ldr	r3, [fp, #-16]   // i
  44:	e2433001 	sub	r3, r3, #1	; 0x1 // i--
  48:	e50b3010 	str	r3, [fp, #-16]    // 存回
  4c:	e51b3010 	ldr	r3, [fp, #-16]    // 读回i
  50:	e3730001 	cmn	r3, #1	; 0x1     // (r3+1) == 1
  54:	1afffff9 	bne	40 <delay+0x18>   //
  58:	e24bd00c 	sub	sp, fp, #12	; 0xc
  5c:	e89d6800 	ldm	sp, {fp, sp, lr}
  60:	e12fff1e 	bx	lr

00000064 <xxxxx>:
  64:	e1a0c00d 	mov	ip, sp  // 8196
  68:	e92dd800 	push	{fp, ip, lr, pc}
  6c:	e24cb004 	sub	fp, ip, #4	; 0x4
  70:	e24dd010 	sub	sp, sp, #16	; 0x10
  74:	e3a03000 	mov	r3, #0	; 0x0
  78:	e50b3018 	str	r3, [fp, #-24]    // i
  7c:	e3a0347f 	mov	r3, #2130706432	; 0x7f000000
  80:	e2833b22 	add	r3, r3, #34816	; 0x8800
  84:	e2833020 	add	r3, r3, #32	; 0x20   // r3=0x7F008820
  88:	e50b3014 	str	r3, [fp, #-20]       // gpmcon
  8c:	e3a0347f 	mov	r3, #2130706432	; 0x7f000000
  90:	e2833b22 	add	r3, r3, #34816	; 0x8800
  94:	e2833024 	add	r3, r3, #36	; 0x24   // r3=0x7F008824
  98:	e50b3010 	str	r3, [fp, #-16]       // gpmdat
  9c:	e51b2014 	ldr	r2, [fp, #-20]       // r2 = 0x7F008820
  a0:	e3a03c11 	mov	r3, #4352	; 0x1100
  a4:	e2833011 	add	r3, r3, #17	; 0x11   // r3 = 0x1111
  a8:	e5823000 	str	r3, [r2]             // *gpmcon = 0x1111;
  ac:	e51b2018 	ldr	r2, [fp, #-24]       // r2 = i = 0
  b0:	e51b3010 	ldr	r3, [fp, #-16]       // r3 = 0x7F008824
  b4:	e5832000 	str	r2, [r3]             // *gpmdat = i;
  b8:	e51b3018 	ldr	r3, [fp, #-24]       // r3 = i
  bc:	e2833001 	add	r3, r3, #1	; 0x1    // i++
  c0:	e50b3018 	str	r3, [fp, #-24]       // 存回去
  c4:	e51b3018 	ldr	r3, [fp, #-24]       // r3 = i
  c8:	e3530010 	cmp	r3, #16	; 0x10       // if (i == 16)
  cc:	1a000001 	bne	d8 <xxxxx+0x74>
  d0:	e3a03000 	mov	r3, #0	; 0x0
  d4:	e50b3018 	str	r3, [fp, #-24]       // i = 0
  d8:	ebffffd2 	bl	28 <delay>           // lr=0xdc
  dc:	eafffff2 	b	ac <xxxxx+0x48>