
led.elf:     file format elf32-littlearm

Disassembly of section .text:

00000000 <_start>:
   0:	e3a00207 	mov	r0, #1879048192	; 0x70000000
   4:	e3800013 	orr	r0, r0, #19	; 0x13
   8:	ee0f0f92 	mcr	15, 0, r0, cr15, cr2, {4}
   c:	e59f0018 	ldr	r0, [pc, #24]	; 2c <halt+0x4>
  10:	e3a01000 	mov	r1, #0	; 0x0
  14:	e5801000 	str	r1, [r0]
  18:	e3a0da02 	mov	sp, #8192	; 0x2000
  1c:	e3a00000 	mov	r0, #0	; 0x0
  20:	e3a01008 	mov	r1, #8	; 0x8
  24:	eb000016 	bl	84 <xxxxx>

00000028 <halt>:
  28:	eafffffe 	b	28 <halt>
  2c:	7e004000 	.word	0x7e004000

00000030 <delay>:
  30:	e0811000 	add	r1, r1, r0
  34:	e24dd008 	sub	sp, sp, #8	; 0x8
  38:	e0811002 	add	r1, r1, r2
  3c:	e0811003 	add	r1, r1, r3
  40:	e59d3008 	ldr	r3, [sp, #8]
  44:	e59d200c 	ldr	r2, [sp, #12]
  48:	e0811003 	add	r1, r1, r3
  4c:	e59d3010 	ldr	r3, [sp, #16]
  50:	e0811002 	add	r1, r1, r2
  54:	e59d2014 	ldr	r2, [sp, #20]
  58:	e0811003 	add	r1, r1, r3
  5c:	e0811002 	add	r1, r1, r2
  60:	e58d1004 	str	r1, [sp, #4]
  64:	e59d3004 	ldr	r3, [sp, #4]
  68:	e2433001 	sub	r3, r3, #1	; 0x1
  6c:	e58d3004 	str	r3, [sp, #4]
  70:	e59d2004 	ldr	r2, [sp, #4]
  74:	e3720001 	cmn	r2, #1	; 0x1
  78:	1afffff9 	bne	64 <delay+0x34>
  7c:	e28dd008 	add	sp, sp, #8	; 0x8
  80:	e12fff1e 	bx	lr

00000084 <xxxxx>:
  84:	e92d40f0 	push	{r4, r5, r6, r7, lr}
  88:	e0822000 	add	r2, r2, r0
  8c:	e24dd014 	sub	sp, sp, #20	; 0x14
  90:	e1a07000 	mov	r7, r0
  94:	e3a0c47f 	mov	ip, #2130706432	; 0x7f000000
  98:	e3a00c11 	mov	r0, #4352	; 0x1100
  9c:	e0822003 	add	r2, r2, r3
  a0:	e2800011 	add	r0, r0, #17	; 0x11
  a4:	e28cc902 	add	ip, ip, #32768	; 0x8000
  a8:	e59d3028 	ldr	r3, [sp, #40]
  ac:	e58c0820 	str	r0, [ip, #2080]
  b0:	e59d002c 	ldr	r0, [sp, #44]
  b4:	e0822003 	add	r2, r2, r3
  b8:	e0825000 	add	r5, r2, r0
  bc:	e1a06001 	mov	r6, r1
  c0:	e3a0347f 	mov	r3, #2130706432	; 0x7f000000
  c4:	e2833902 	add	r3, r3, #32768	; 0x8000
  c8:	e5835824 	str	r5, [r3, #2084]
  cc:	e3a02002 	mov	r2, #2	; 0x2
  d0:	e2855001 	add	r5, r5, #1	; 0x1
  d4:	e3a0c004 	mov	ip, #4	; 0x4
  d8:	e1550006 	cmp	r5, r6
  dc:	e58dc000 	str	ip, [sp]
  e0:	e3a0e005 	mov	lr, #5	; 0x5
  e4:	e08cc002 	add	ip, ip, r2
  e8:	e3a04801 	mov	r4, #65536	; 0x10000
  ec:	e3a00000 	mov	r0, #0	; 0x0
  f0:	e3a01001 	mov	r1, #1	; 0x1
  f4:	e3a03003 	mov	r3, #3	; 0x3
  f8:	01a05007 	moveq	r5, r7
  fc:	e58de004 	str	lr, [sp, #4]
 100:	e58dc008 	str	ip, [sp, #8]
 104:	e58d400c 	str	r4, [sp, #12]
 108:	ebffffc8 	bl	30 <delay>
 10c:	eaffffeb 	b	c0 <xxxxx+0x3c>